target datalayout = "e-m:e-p270:32:32-p271:32:32-p272:64:64-i64:64-i128:128-f80:128-n8:16:32:64-S128"
target triple = "x86_64-unknown-linux-gnu"

%struct.QTailQLink = type { ptr, ptr }
%struct.BlockDriverState = type { i32, i8, i8, i8, i8, i8, ptr, ptr, ptr, %struct.anon.0, i8, [4096 x i8], [4096 x i8], [4096 x i8], [16 x i8], ptr, [4096 x i8], %struct.BlockLimits, i32, i32, i32, i32, [32 x i8], %union.anon, %union.anon.1, %union.anon.2, i32, [16 x %struct.anon.3], ptr, %struct.anon.4, ptr, ptr, %struct.anon.5, ptr, ptr, i32, ptr, i64, i64, %struct.QemuMutex, %struct.anon.6, %struct.Stat64, i32, i32, i32, i32, i32, i32, %struct.QemuMutex, %struct.anon.7, %struct.CoQueue, i8, i32, i8, %struct.CoMutex, ptr, ptr }
%struct.anon.0 = type { ptr }
%struct.BlockLimits = type { i32, i64, i32, i64, i32, i32, i32, i64, i32, i64, i64, i32, i8, i32, i32, i32, i32, i32, i32, i32 }
%union.anon = type { %struct.QTailQLink }
%union.anon.1 = type { %struct.QTailQLink }
%union.anon.2 = type { %struct.QTailQLink }
%struct.anon.3 = type { ptr }
%struct.anon.4 = type { ptr }
%struct.anon.5 = type { ptr }
%struct.anon.6 = type { ptr }
%struct.Stat64 = type { i64 }
%struct.QemuMutex = type { %union.pthread_mutex_t, i8 }
%union.pthread_mutex_t = type { %struct.__pthread_mutex_s }
%struct.__pthread_mutex_s = type { i32, i32, i32, i32, i32, i16, i16, %struct.__pthread_internal_list }
%struct.__pthread_internal_list = type { ptr, ptr }
%struct.anon.7 = type { ptr }
%struct.CoQueue = type { %struct.anon.8 }
%struct.anon.8 = type { ptr, ptr }
%struct.CoMutex = type { i32, ptr, %struct.anon.9, %struct.anon.9, i32, i32, ptr }
%struct.anon.9 = type { ptr }
%struct.BDRVBlkdebugState = type { i64, i64, i64, i64, i64, i64, ptr, i64, i64, i32, [48 x %struct.anon.10], %struct.anon.11, %struct.anon.12, %struct.QemuMutex }
%struct.anon.10 = type { ptr }
%struct.anon.11 = type { ptr, ptr }
%struct.anon.12 = type { ptr }
%struct.BdrvChild = type { ptr, ptr, ptr, i32, ptr, i64, i64, i8, i8, %struct.anon.14, %struct.anon.15 }
%struct.anon.14 = type { ptr, ptr }
%struct.anon.15 = type { ptr, ptr }

@.str.1 = private unnamed_addr constant [7 x i8] c"config\00", align 1
@.str.11 = private unnamed_addr constant [8 x i8] c"x-image\00", align 1
@.str.14 = private unnamed_addr constant [6 x i8] c"image\00", align 1
@.str.50 = private unnamed_addr constant [7 x i8] c"driver\00", align 1
@.str.51 = private unnamed_addr constant [15 x i8] c"blkdebug:%s:%s\00", align 1
@.str.52 = private unnamed_addr constant [1 x i8] zeroinitializer, align 1

; Function Attrs: nounwind sspstrong uwtable
define internal void @blkdebug_refresh_filename(ptr noundef %bs) #0 {
entry:
  %bs.addr = alloca ptr, align 8
  %s = alloca ptr, align 8
  %e = alloca ptr, align 8
  %ret = alloca i32, align 4
  store ptr %bs, ptr %bs.addr, align 8
  %0 = load ptr, ptr %bs.addr, align 8
  %opaque = getelementptr inbounds %struct.BlockDriverState, ptr %0, i32 0, i32 7
  %1 = load ptr, ptr %opaque, align 8
  store ptr %1, ptr %s, align 8
  %2 = load ptr, ptr %bs.addr, align 8
  %file = getelementptr inbounds %struct.BlockDriverState, ptr %2, i32 0, i32 31
  %3 = load ptr, ptr %file, align 8
  %bs1 = getelementptr inbounds %struct.BdrvChild, ptr %3, i32 0, i32 0
  %4 = load ptr, ptr %bs1, align 8
  %exact_filename = getelementptr inbounds %struct.BlockDriverState, ptr %4, i32 0, i32 16
  %arrayidx = getelementptr [4096 x i8], ptr %exact_filename, i64 0, i64 0
  %5 = load i8, ptr %arrayidx, align 8
  %tobool = icmp ne i8 %5, 0
  br i1 %tobool, label %if.end, label %if.then

if.then:                                          ; preds = %entry
  br label %if.end32

if.end:                                           ; preds = %entry
  %6 = load ptr, ptr %bs.addr, align 8
  %full_open_options = getelementptr inbounds %struct.BlockDriverState, ptr %6, i32 0, i32 15
  %7 = load ptr, ptr %full_open_options, align 8
  %call = call ptr @qdict_first(ptr noundef %7)
  store ptr %call, ptr %e, align 8
  br label %for.cond

for.cond:                                         ; preds = %for.inc, %if.end
  %8 = load ptr, ptr %e, align 8
  %tobool2 = icmp ne ptr %8, null
  br i1 %tobool2, label %for.body, label %for.end

for.body:                                         ; preds = %for.cond
  %9 = load ptr, ptr %e, align 8
  %call3 = call ptr @qdict_entry_key(ptr noundef %9)
  %call4 = call i32 @strcmp(ptr noundef %call3, ptr noundef @.str.1) #11
  %tobool5 = icmp ne i32 %call4, 0
  br i1 %tobool5, label %land.lhs.true, label %if.end18

land.lhs.true:                                    ; preds = %for.body
  %10 = load ptr, ptr %e, align 8
  %call6 = call ptr @qdict_entry_key(ptr noundef %10)
  %call7 = call i32 @strcmp(ptr noundef %call6, ptr noundef @.str.14) #11
  %tobool8 = icmp ne i32 %call7, 0
  br i1 %tobool8, label %land.lhs.true9, label %if.end18

land.lhs.true9:                                   ; preds = %land.lhs.true
  %11 = load ptr, ptr %e, align 8
  %call10 = call ptr @qdict_entry_key(ptr noundef %11)
  %call11 = call i32 @strcmp(ptr noundef %call10, ptr noundef @.str.11) #11
  %tobool12 = icmp ne i32 %call11, 0
  br i1 %tobool12, label %land.lhs.true13, label %if.end18

land.lhs.true13:                                  ; preds = %land.lhs.true9
  %12 = load ptr, ptr %e, align 8
  %call14 = call ptr @qdict_entry_key(ptr noundef %12)
  %call15 = call i32 @strcmp(ptr noundef %call14, ptr noundef @.str.50) #11
  %tobool16 = icmp ne i32 %call15, 0
  br i1 %tobool16, label %if.then17, label %if.end18

if.then17:                                        ; preds = %land.lhs.true13
  br label %if.end32

if.end18:                                         ; preds = %land.lhs.true13, %land.lhs.true9, %land.lhs.true, %for.body
  br label %for.inc

for.inc:                                          ; preds = %if.end18
  %13 = load ptr, ptr %bs.addr, align 8
  %full_open_options19 = getelementptr inbounds %struct.BlockDriverState, ptr %13, i32 0, i32 15
  %14 = load ptr, ptr %full_open_options19, align 8
  %15 = load ptr, ptr %e, align 8
  %call20 = call ptr @qdict_next(ptr noundef %14, ptr noundef %15)
  store ptr %call20, ptr %e, align 8
  br label %for.cond, !llvm.loop !8

for.end:                                          ; preds = %for.cond
  %16 = load ptr, ptr %bs.addr, align 8
  %exact_filename21 = getelementptr inbounds %struct.BlockDriverState, ptr %16, i32 0, i32 16
  %arraydecay = getelementptr inbounds [4096 x i8], ptr %exact_filename21, i64 0, i64 0
  %17 = load ptr, ptr %s, align 8
  %config_file = getelementptr inbounds %struct.BDRVBlkdebugState, ptr %17, i32 0, i32 6
  %18 = load ptr, ptr %config_file, align 8
  %tobool22 = icmp ne ptr %18, null
  br i1 %tobool22, label %cond.true, label %cond.false

cond.true:                                        ; preds = %for.end
  br label %cond.end

cond.false:                                       ; preds = %for.end
  br label %cond.end

cond.end:                                         ; preds = %cond.false, %cond.true
  %cond = phi ptr [ %18, %cond.true ], [ @.str.52, %cond.false ]
  %19 = load ptr, ptr %bs.addr, align 8
  %file23 = getelementptr inbounds %struct.BlockDriverState, ptr %19, i32 0, i32 31
  %20 = load ptr, ptr %file23, align 8
  %bs24 = getelementptr inbounds %struct.BdrvChild, ptr %20, i32 0, i32 0
  %21 = load ptr, ptr %bs24, align 8
  %exact_filename25 = getelementptr inbounds %struct.BlockDriverState, ptr %21, i32 0, i32 16
  %arraydecay26 = getelementptr inbounds [4096 x i8], ptr %exact_filename25, i64 0, i64 0
  %call27 = call i32 (ptr, i64, ptr, ...) @snprintf(ptr noundef %arraydecay, i64 noundef 4096, ptr noundef @.str.51, ptr noundef %cond, ptr noundef %arraydecay26) #12
  store i32 %call27, ptr %ret, align 4
  %22 = load i32, ptr %ret, align 4
  %conv = sext i32 %22 to i64
  %cmp = icmp uge i64 %conv, 4096
  br i1 %cmp, label %if.then29, label %if.end32

if.then29:                                        ; preds = %cond.end
  %23 = load ptr, ptr %bs.addr, align 8
  %exact_filename30 = getelementptr inbounds %struct.BlockDriverState, ptr %23, i32 0, i32 16
  %arrayidx31 = getelementptr [4096 x i8], ptr %exact_filename30, i64 0, i64 0
  store i8 0, ptr %arrayidx31, align 8
  br label %if.end32

if.end32:                                         ; preds = %if.then29, %cond.end, %if.then17, %if.then
  ret void
}