; Function Attrs: nounwind sspstrong uwtable
define internal void @blkdebug_refresh_filename(ptr noundef captures(none) %bs) #0 {
entry:
  %opaque = getelementptr inbounds nuw i8, ptr %bs, i64 24
  %0 = load ptr, ptr %opaque, align 8
  %file = getelementptr inbounds nuw i8, ptr %bs, i64 16840
  %1 = load ptr, ptr %file, align 8
  %2 = load ptr, ptr %1, align 8
  %exact_filename = getelementptr inbounds nuw i8, ptr %2, i64 12368
  %3 = load i8, ptr %exact_filename, align 8
  %tobool.not = icmp eq i8 %3, 0
  br i1 %tobool.not, label %if.end32, label %if.end

if.end:                                           ; preds = %entry
  %full_open_options = getelementptr inbounds nuw i8, ptr %bs, i64 12360
  %4 = load ptr, ptr %full_open_options, align 8
  %call = tail call ptr @qdict_first(ptr noundef %4) #13
  %tobool2.not12 = icmp eq ptr %call, null
  br i1 %tobool2.not12, label %for.end, label %for.body

for.body:                                         ; preds = %if.end, %for.inc
  %e.013 = phi ptr [ %call20, %for.inc ], [ %call, %if.end ]
  %call3 = tail call ptr @qdict_entry_key(ptr noundef nonnull %e.013) #13
  %call4 = tail call i32 @strcmp(ptr noundef nonnull dereferenceable(1) %call3, ptr noundef nonnull dereferenceable(7) @.str.1) #14
  %tobool5.not = icmp eq i32 %call4, 0
  br i1 %tobool5.not, label %for.inc, label %land.lhs.true

land.lhs.true:                                    ; preds = %for.body
  %call6 = tail call ptr @qdict_entry_key(ptr noundef nonnull %e.013) #13
  %call7 = tail call i32 @strcmp(ptr noundef nonnull dereferenceable(1) %call6, ptr noundef nonnull dereferenceable(6) @.str.14) #14
  %tobool8.not = icmp eq i32 %call7, 0
  br i1 %tobool8.not, label %for.inc, label %land.lhs.true9

land.lhs.true9:                                   ; preds = %land.lhs.true
  %call10 = tail call ptr @qdict_entry_key(ptr noundef nonnull %e.013) #13
  %call11 = tail call i32 @strcmp(ptr noundef nonnull dereferenceable(1) %call10, ptr noundef nonnull dereferenceable(8) @.str.11) #14
  %tobool12.not = icmp eq i32 %call11, 0
  br i1 %tobool12.not, label %for.inc, label %land.lhs.true13

land.lhs.true13:                                  ; preds = %land.lhs.true9
  %call14 = tail call ptr @qdict_entry_key(ptr noundef nonnull %e.013) #13
  %call15 = tail call i32 @strcmp(ptr noundef nonnull dereferenceable(1) %call14, ptr noundef nonnull dereferenceable(7) @.str.50) #14
  %tobool16.not = icmp eq i32 %call15, 0
  br i1 %tobool16.not, label %for.inc, label %if.end32

for.inc:                                          ; preds = %for.body, %land.lhs.true, %land.lhs.true9, %land.lhs.true13
  %5 = load ptr, ptr %full_open_options, align 8
  %call20 = tail call ptr @qdict_next(ptr noundef %5, ptr noundef nonnull %e.013) #13
  %tobool2.not = icmp eq ptr %call20, null
  br i1 %tobool2.not, label %for.end, label %for.body, !llvm.loop !8

for.end:                                          ; preds = %for.inc, %if.end
  %exact_filename21 = getelementptr inbounds nuw i8, ptr %bs, i64 12368
  %config_file = getelementptr inbounds nuw i8, ptr %0, i64 48
  %6 = load ptr, ptr %config_file, align 8
  %tobool22.not = icmp eq ptr %6, null
  %..str.52 = select i1 %tobool22.not, ptr @.str.52, ptr %6
  %7 = load ptr, ptr %file, align 8
  %8 = load ptr, ptr %7, align 8
  %exact_filename25 = getelementptr inbounds nuw i8, ptr %8, i64 12368
  %call27 = tail call i32 (ptr, i64, ptr, ...) @snprintf(ptr noundef nonnull dereferenceable(1) %exact_filename21, i64 noundef 4096, ptr noundef nonnull @.str.51, ptr noundef nonnull %..str.52, ptr noundef nonnull %exact_filename25) #13
  %cmp = icmp ugt i32 %call27, 4095
  br i1 %cmp, label %if.then29, label %if.end32

if.then29:                                        ; preds = %for.end
  store i8 0, ptr %exact_filename21, align 8
  br label %if.end32

if.end32:                                         ; preds = %land.lhs.true13, %entry, %if.then29, %for.end
  ret void
}